; Function Attrs: mustprogress nofree norecurse nosync nounwind willreturn memory(argmem: write) uwtable
define void @Gia_ManAbsSetDefaultParams(ptr noundef writeonly captures(none) initializes((0, 76)) %0) local_unnamed_addr #0 {
  %2 = getelementptr inbounds nuw i8, ptr %0, i64 4
  tail call void @llvm.memset.p0.i64(ptr noundef nonnull align 4 dereferenceable(44) %0, i8 0, i64 44, i1 false)
  store i32 10, ptr %2, align 4
  %3 = getelementptr inbounds nuw i8, ptr %0, i64 8
  store i32 10000, ptr %3, align 4
  %4 = getelementptr inbounds nuw i8, ptr %0, i64 12
  store i32 1, ptr %4, align 4
  %5 = getelementptr inbounds nuw i8, ptr %0, i64 20
  store i32 250, ptr %5, align 4
  %6 = getelementptr inbounds nuw i8, ptr %0, i64 24
  store i32 5000, ptr %6, align 4
  %7 = getelementptr inbounds nuw i8, ptr %0, i64 28
  store i32 1000000, ptr %7, align 4
  %8 = getelementptr inbounds nuw i8, ptr %0, i64 32
  store i32 10, ptr %8, align 4
  %9 = getelementptr inbounds nuw i8, ptr %0, i64 44
  store i32 1000000, ptr %9, align 4
  %10 = getelementptr inbounds nuw i8, ptr %0, i64 48
  store i32 0, ptr %10, align 4
  %11 = getelementptr inbounds nuw i8, ptr %0, i64 52
  store i32 0, ptr %11, align 4
  %12 = getelementptr inbounds nuw i8, ptr %0, i64 56
  store i32 1, ptr %12, align 4
  %13 = getelementptr inbounds nuw i8, ptr %0, i64 60
  store i32 0, ptr %13, align 4
  %14 = getelementptr inbounds nuw i8, ptr %0, i64 64
  store i32 0, ptr %14, align 4
  %15 = getelementptr inbounds nuw i8, ptr %0, i64 68
  store i32 -1, ptr %15, align 4
  %16 = getelementptr inbounds nuw i8, ptr %0, i64 72
  store i32 -1, ptr %16, align 4
  ret void
}